target datalayout = "e-m:e-p270:32:32-p271:32:32-p272:64:64-i64:64-i128:128-f80:128-n8:16:32:64-S128"
target triple = "x86_64-unknown-linux-gnu"

%"class.std::__shared_count" = type { ptr }
%"class.node::MutexBase" = type { %union.pthread_mutex_t }
%union.pthread_mutex_t = type { %struct.__pthread_mutex_s }
%struct.__pthread_mutex_s = type { i32, i32, i32, i32, i32, i16, i16, %struct.__pthread_internal_list }
%struct.__pthread_internal_list = type { ptr, ptr }
%"struct.std::atomic" = type { %"struct.std::__atomic_base" }
%"struct.std::__atomic_base" = type { i8 }
%"class.std::__cxx11::basic_string" = type { %"struct.std::__cxx11::basic_string<char>::_Alloc_hider", i64, %union.anon }
%"struct.std::__cxx11::basic_string<char>::_Alloc_hider" = type { ptr }
%union.anon = type { i64, [8 x i8] }
%"class.node::EnabledDebugList" = type { [75 x i8] }
%"class.std::shared_ptr.32" = type { %"class.std::__shared_ptr.33" }
%"class.std::__shared_ptr.33" = type { ptr, %"class.std::__shared_count" }
%"class.node::Environment" = type { %"class.node::MemoryRetainer", %"class.std::unordered_multimap", %"class.std::__cxx11::list", ptr, ptr, %struct.uv_timer_s, %struct.uv_check_s, %struct.uv_idle_s, %struct.uv_prepare_s, %struct.uv_check_s, %struct.uv_async_s, i64, %"struct.std::atomic", %"struct.std::atomic", %"class.node::AsyncHooks", %"class.node::ImmediateInfo", %"class.node::AliasedBufferBase.59", %"class.node::TickInfo", %"class.node::permission::Permission", i64, %"class.std::shared_ptr.84", i8, i8, i8, i8, i8, i8, i64, %"class.std::vector.87", %"class.std::unordered_set", %"class.std::unique_ptr.111", %"class.std::unique_ptr.119", %"class.std::__cxx11::basic_string", %"class.std::__cxx11::basic_string", %"class.std::__cxx11::basic_string", i64, %"class.std::unique_ptr.127", %"class.std::__cxx11::basic_string", %"class.std::__cxx11::basic_string", i64, %"class.std::shared_ptr.135", %"class.std::shared_ptr.32", %"class.std::vector.138", %"class.std::vector.138", %"class.std::__cxx11::basic_string", i8, i32, i32, i8, i32, i32, i32, i32, %"class.node::AliasedBufferBase.59", %"class.node::AliasedBufferBase.49", i32, %"class.std::unique_ptr.143", %"class.node::AliasedBufferBase.59", i64, double, i64, %"class.std::unique_ptr.151", i8, i64, i64, %"class.std::unordered_set.159", %"class.std::unique_ptr.179", i8, %"class.std::__cxx11::list.187", %"class.node::ListHead", %"class.node::ListHead.192", %"class.std::__cxx11::list.194", i32, i32, %"class.node::EnabledDebugList", %"class.std::vector.199", %"class.std::__cxx11::list.204", %"class.node::MutexBase", %"class.std::__cxx11::list.209", %"class.node::CallbackQueue", %"class.node::MutexBase", %"class.node::CallbackQueue", %"class.node::CallbackQueue", i8, %"struct.std::atomic.224", %"class.node::CleanupQueue", i8, %"class.std::unordered_set.242", %"class.std::function", %"class.std::unique_ptr.257", %"class.node::builtins::BuiltinLoader", %"class.std::function.271", %"class.std::unordered_map.273" }
%"class.node::MemoryRetainer" = type { ptr }
%"class.std::unordered_multimap" = type { %"class.std::_Hashtable" }
%"class.std::_Hashtable" = type { ptr, i64, %"struct.std::__detail::_Hash_node_base", i64, %"struct.std::__detail::_Prime_rehash_policy", ptr }
%"struct.std::__detail::_Hash_node_base" = type { ptr }
%"struct.std::__detail::_Prime_rehash_policy" = type { float, i64 }
%"class.std::__cxx11::list" = type { %"class.std::__cxx11::_List_base" }
%"class.std::__cxx11::_List_base" = type { %"struct.std::__cxx11::_List_base<node::binding::DLib, std::allocator<node::binding::DLib>>::_List_impl" }
%"struct.std::__cxx11::_List_base<node::binding::DLib, std::allocator<node::binding::DLib>>::_List_impl" = type { %"struct.std::__detail::_List_node_header" }
%"struct.std::__detail::_List_node_header" = type { %"struct.std::__detail::_List_node_base", i64 }
%"struct.std::__detail::_List_node_base" = type { ptr, ptr }
%struct.uv_timer_s = type { ptr, ptr, i32, ptr, %struct.uv__queue, %union.anon.44, ptr, i32, ptr, [3 x ptr], i64, i64, i64 }
%struct.uv__queue = type { ptr, ptr }
%union.anon.44 = type { [4 x ptr] }
%struct.uv_idle_s = type { ptr, ptr, i32, ptr, %struct.uv__queue, %union.anon.46, ptr, i32, ptr, %struct.uv__queue }
%union.anon.46 = type { [4 x ptr] }
%struct.uv_prepare_s = type { ptr, ptr, i32, ptr, %struct.uv__queue, %union.anon.47, ptr, i32, ptr, %struct.uv__queue }
%union.anon.47 = type { [4 x ptr] }
%struct.uv_check_s = type { ptr, ptr, i32, ptr, %struct.uv__queue, %union.anon.45, ptr, i32, ptr, %struct.uv__queue }
%union.anon.45 = type { [4 x ptr] }
%struct.uv_async_s = type { ptr, ptr, i32, ptr, %struct.uv__queue, %union.anon.48, ptr, i32, ptr, %struct.uv__queue, i32 }
%union.anon.48 = type { [4 x ptr] }
%"class.node::AsyncHooks" = type { %"class.node::MemoryRetainer", %"class.node::AliasedBufferBase", %"class.node::AliasedBufferBase.49", %"class.node::AliasedBufferBase", %"class.v8::Global.52", %"class.std::vector", ptr, %"struct.std::array" }
%"class.node::AliasedBufferBase" = type { %"class.node::MemoryRetainer", ptr, i64, i64, ptr, %"class.v8::Global", ptr }
%"class.v8::Global" = type { %"class.v8::PersistentBase" }
%"class.v8::PersistentBase" = type { %"class.v8::IndirectHandleBase" }
%"class.v8::IndirectHandleBase" = type { ptr }
%"class.v8::Global.52" = type { %"class.v8::PersistentBase.53" }
%"class.v8::PersistentBase.53" = type { %"class.v8::IndirectHandleBase" }
%"class.std::vector" = type { %"struct.std::_Vector_base" }
%"struct.std::_Vector_base" = type { %"struct.std::_Vector_base<v8::Local<v8::Object>, std::allocator<v8::Local<v8::Object>>>::_Vector_impl" }
%"struct.std::_Vector_base<v8::Local<v8::Object>, std::allocator<v8::Local<v8::Object>>>::_Vector_impl" = type { %"struct.std::_Vector_base<v8::Local<v8::Object>, std::allocator<v8::Local<v8::Object>>>::_Vector_impl_data" }
%"struct.std::_Vector_base<v8::Local<v8::Object>, std::allocator<v8::Local<v8::Object>>>::_Vector_impl_data" = type { ptr, ptr, ptr }
%"struct.std::array" = type { [4 x %"class.v8::Global.57"] }
%"class.v8::Global.57" = type { %"class.v8::PersistentBase.58" }
%"class.v8::PersistentBase.58" = type { %"class.v8::IndirectHandleBase" }
%"class.node::ImmediateInfo" = type { %"class.node::MemoryRetainer", %"class.node::AliasedBufferBase.49" }
%"class.node::TickInfo" = type { %"class.node::MemoryRetainer", %"class.node::AliasedBufferBase.62" }
%"class.node::AliasedBufferBase.62" = type { %"class.node::MemoryRetainer", ptr, i64, i64, ptr, %"class.v8::Global.63", ptr }
%"class.v8::Global.63" = type { %"class.v8::PersistentBase.64" }
%"class.v8::PersistentBase.64" = type { %"class.v8::IndirectHandleBase" }
%"class.node::permission::Permission" = type <{ %"class.std::unordered_map", i8, [7 x i8] }>
%"class.std::unordered_map" = type { %"class.std::_Hashtable.65" }
%"class.std::_Hashtable.65" = type { ptr, i64, %"struct.std::__detail::_Hash_node_base", i64, %"struct.std::__detail::_Prime_rehash_policy", ptr }
%"class.std::shared_ptr.84" = type { %"class.std::__shared_ptr.85" }
%"class.std::__shared_ptr.85" = type { ptr, %"class.std::__shared_count" }
%"class.std::vector.87" = type { %"struct.std::_Vector_base.88" }
%"struct.std::_Vector_base.88" = type { %"struct.std::_Vector_base<double, std::allocator<double>>::_Vector_impl" }
%"struct.std::_Vector_base<double, std::allocator<double>>::_Vector_impl" = type { %"struct.std::_Vector_base<double, std::allocator<double>>::_Vector_impl_data" }
%"struct.std::_Vector_base<double, std::allocator<double>>::_Vector_impl_data" = type { ptr, ptr, ptr }
%"class.std::unordered_set" = type { %"class.std::_Hashtable.92" }
%"class.std::_Hashtable.92" = type { ptr, i64, %"struct.std::__detail::_Hash_node_base", i64, %"struct.std::__detail::_Prime_rehash_policy", ptr }
%"class.std::unique_ptr.111" = type { %"struct.std::__uniq_ptr_data.112" }
%"struct.std::__uniq_ptr_data.112" = type { %"class.std::__uniq_ptr_impl.113" }
%"class.std::__uniq_ptr_impl.113" = type { %"class.std::tuple.114" }
%"class.std::tuple.114" = type { %"struct.std::_Tuple_impl.115" }
%"struct.std::_Tuple_impl.115" = type { %"struct.std::_Head_base.118" }
%"struct.std::_Head_base.118" = type { ptr }
%"class.std::unique_ptr.119" = type { %"struct.std::__uniq_ptr_data.120" }
%"struct.std::__uniq_ptr_data.120" = type { %"class.std::__uniq_ptr_impl.121" }
%"class.std::__uniq_ptr_impl.121" = type { %"class.std::tuple.122" }
%"class.std::tuple.122" = type { %"struct.std::_Tuple_impl.123" }
%"struct.std::_Tuple_impl.123" = type { %"struct.std::_Head_base.126" }
%"struct.std::_Head_base.126" = type { ptr }
%"class.std::unique_ptr.127" = type { %"struct.std::__uniq_ptr_data.128" }
%"struct.std::__uniq_ptr_data.128" = type { %"class.std::__uniq_ptr_impl.129" }
%"class.std::__uniq_ptr_impl.129" = type { %"class.std::tuple.130" }
%"class.std::tuple.130" = type { %"struct.std::_Tuple_impl.131" }
%"struct.std::_Tuple_impl.131" = type { %"struct.std::_Head_base.134" }
%"struct.std::_Head_base.134" = type { ptr }
%"class.std::shared_ptr.135" = type { %"class.std::__shared_ptr.136" }
%"class.std::__shared_ptr.136" = type { ptr, %"class.std::__shared_count" }
%"class.std::vector.138" = type { %"struct.std::_Vector_base.139" }
%"struct.std::_Vector_base.139" = type { %"struct.std::_Vector_base<std::__cxx11::basic_string<char>, std::allocator<std::__cxx11::basic_string<char>>>::_Vector_impl" }
%"struct.std::_Vector_base<std::__cxx11::basic_string<char>, std::allocator<std::__cxx11::basic_string<char>>>::_Vector_impl" = type { %"struct.std::_Vector_base<std::__cxx11::basic_string<char>, std::allocator<std::__cxx11::basic_string<char>>>::_Vector_impl_data" }
%"struct.std::_Vector_base<std::__cxx11::basic_string<char>, std::allocator<std::__cxx11::basic_string<char>>>::_Vector_impl_data" = type { ptr, ptr, ptr }
%"class.node::AliasedBufferBase.49" = type { %"class.node::MemoryRetainer", ptr, i64, i64, ptr, %"class.v8::Global.50", ptr }
%"class.v8::Global.50" = type { %"class.v8::PersistentBase.51" }
%"class.v8::PersistentBase.51" = type { %"class.v8::IndirectHandleBase" }
%"class.std::unique_ptr.143" = type { %"struct.std::__uniq_ptr_data.144" }
%"struct.std::__uniq_ptr_data.144" = type { %"class.std::__uniq_ptr_impl.145" }
%"class.std::__uniq_ptr_impl.145" = type { %"class.std::tuple.146" }
%"class.std::tuple.146" = type { %"struct.std::_Tuple_impl.147" }
%"struct.std::_Tuple_impl.147" = type { %"struct.std::_Head_base.150" }
%"struct.std::_Head_base.150" = type { ptr }
%"class.node::AliasedBufferBase.59" = type { %"class.node::MemoryRetainer", ptr, i64, i64, ptr, %"class.v8::Global.60", ptr }
%"class.v8::Global.60" = type { %"class.v8::PersistentBase.61" }
%"class.v8::PersistentBase.61" = type { %"class.v8::IndirectHandleBase" }
%"class.std::unique_ptr.151" = type { %"struct.std::__uniq_ptr_data.152" }
%"struct.std::__uniq_ptr_data.152" = type { %"class.std::__uniq_ptr_impl.153" }
%"class.std::__uniq_ptr_impl.153" = type { %"class.std::tuple.154" }
%"class.std::tuple.154" = type { %"struct.std::_Tuple_impl.155" }
%"struct.std::_Tuple_impl.155" = type { %"struct.std::_Head_base.158" }
%"struct.std::_Head_base.158" = type { ptr }
%"class.std::unordered_set.159" = type { %"class.std::_Hashtable.160" }
%"class.std::_Hashtable.160" = type { ptr, i64, %"struct.std::__detail::_Hash_node_base", i64, %"struct.std::__detail::_Prime_rehash_policy", ptr }
%"class.std::unique_ptr.179" = type { %"struct.std::__uniq_ptr_data.180" }
%"struct.std::__uniq_ptr_data.180" = type { %"class.std::__uniq_ptr_impl.181" }
%"class.std::__uniq_ptr_impl.181" = type { %"class.std::tuple.182" }
%"class.std::tuple.182" = type { %"struct.std::_Tuple_impl.183" }
%"struct.std::_Tuple_impl.183" = type { %"struct.std::_Head_base.186" }
%"struct.std::_Head_base.186" = type { ptr }
%"class.std::__cxx11::list.187" = type { %"class.std::__cxx11::_List_base.188" }
%"class.std::__cxx11::_List_base.188" = type { %"struct.std::__cxx11::_List_base<node::DeserializeRequest, std::allocator<node::DeserializeRequest>>::_List_impl" }
%"struct.std::__cxx11::_List_base<node::DeserializeRequest, std::allocator<node::DeserializeRequest>>::_List_impl" = type { %"struct.std::__detail::_List_node_header" }
%"class.node::ListHead" = type { %"class.node::ListNode" }
%"class.node::ListNode" = type { ptr, ptr }
%"class.node::ListHead.192" = type { %"class.node::ListNode.193" }
%"class.node::ListNode.193" = type { ptr, ptr }
%"class.std::__cxx11::list.194" = type { %"class.std::__cxx11::_List_base.195" }
%"class.std::__cxx11::_List_base.195" = type { %"struct.std::__cxx11::_List_base<node::Environment::HandleCleanup, std::allocator<node::Environment::HandleCleanup>>::_List_impl" }
%"struct.std::__cxx11::_List_base<node::Environment::HandleCleanup, std::allocator<node::Environment::HandleCleanup>>::_List_impl" = type { %"struct.std::__detail::_List_node_header" }
%"class.std::vector.199" = type { %"struct.std::_Vector_base.200" }
%"struct.std::_Vector_base.200" = type { %"struct.std::_Vector_base<v8::Global<v8::Context>, std::allocator<v8::Global<v8::Context>>>::_Vector_impl" }
%"struct.std::_Vector_base<v8::Global<v8::Context>, std::allocator<v8::Global<v8::Context>>>::_Vector_impl" = type { %"struct.std::_Vector_base<v8::Global<v8::Context>, std::allocator<v8::Global<v8::Context>>>::_Vector_impl_data" }
%"struct.std::_Vector_base<v8::Global<v8::Context>, std::allocator<v8::Global<v8::Context>>>::_Vector_impl_data" = type { ptr, ptr, ptr }
%"class.std::__cxx11::list.204" = type { %"class.std::__cxx11::_List_base.205" }
%"class.std::__cxx11::_List_base.205" = type { %"struct.std::__cxx11::_List_base<node::node_module, std::allocator<node::node_module>>::_List_impl" }
%"struct.std::__cxx11::_List_base<node::node_module, std::allocator<node::node_module>>::_List_impl" = type { %"struct.std::__detail::_List_node_header" }
%"class.std::__cxx11::list.209" = type { %"class.std::__cxx11::_List_base.210" }
%"class.std::__cxx11::_List_base.210" = type { %"struct.std::__cxx11::_List_base<node::Environment::ExitCallback, std::allocator<node::Environment::ExitCallback>>::_List_impl" }
%"struct.std::__cxx11::_List_base<node::Environment::ExitCallback, std::allocator<node::Environment::ExitCallback>>::_List_impl" = type { %"struct.std::__detail::_List_node_header" }
%"class.node::CallbackQueue" = type { %"struct.std::atomic.214", %"class.std::unique_ptr.216", ptr }
%"struct.std::atomic.214" = type { %"struct.std::__atomic_base.215" }
%"struct.std::__atomic_base.215" = type { i64 }
%"class.std::unique_ptr.216" = type { %"struct.std::__uniq_ptr_data.217" }
%"struct.std::__uniq_ptr_data.217" = type { %"class.std::__uniq_ptr_impl.218" }
%"class.std::__uniq_ptr_impl.218" = type { %"class.std::tuple.219" }
%"class.std::tuple.219" = type { %"struct.std::_Tuple_impl.220" }
%"struct.std::_Tuple_impl.220" = type { %"struct.std::_Head_base.223" }
%"struct.std::_Head_base.223" = type { ptr }
%"struct.std::atomic.224" = type { %"struct.std::__atomic_base.225" }
%"struct.std::__atomic_base.225" = type { ptr }
%"class.node::CleanupQueue" = type { %"class.node::MemoryRetainer", %"class.std::unordered_set.226", i64 }
%"class.std::unordered_set.226" = type { %"class.std::_Hashtable.227" }
%"class.std::_Hashtable.227" = type { ptr, i64, %"struct.std::__detail::_Hash_node_base", i64, %"struct.std::__detail::_Prime_rehash_policy", ptr }
%"class.std::unordered_set.242" = type { %"class.std::_Hashtable.243" }
%"class.std::_Hashtable.243" = type { ptr, i64, %"struct.std::__detail::_Hash_node_base", i64, %"struct.std::__detail::_Prime_rehash_policy", ptr }
%"class.std::function" = type { %"class.std::_Function_base", ptr }
%"class.std::_Function_base" = type { %"union.std::_Any_data", ptr }
%"union.std::_Any_data" = type { %"union.std::_Nocopy_types" }
%"union.std::_Nocopy_types" = type { { i64, i64 } }
%"class.std::unique_ptr.257" = type { %"struct.std::__uniq_ptr_data.258" }
%"struct.std::__uniq_ptr_data.258" = type { %"class.std::__uniq_ptr_impl.259" }
%"class.std::__uniq_ptr_impl.259" = type { %"class.std::tuple.260" }
%"class.std::tuple.260" = type { %"struct.std::_Tuple_impl.261" }
%"struct.std::_Tuple_impl.261" = type { %"struct.std::_Head_base.264" }
%"struct.std::_Head_base.264" = type { ptr }
%"class.node::builtins::BuiltinLoader" = type { %"class.node::ThreadsafeCopyOnWrite", %"class.node::UnionBytes", %"class.std::shared_ptr.268" }
%"class.node::ThreadsafeCopyOnWrite" = type { %"class.node::CopyOnWrite" }
%"class.node::CopyOnWrite" = type { %"class.std::shared_ptr.265" }
%"class.std::shared_ptr.265" = type { %"class.std::__shared_ptr.266" }
%"class.std::__shared_ptr.266" = type { ptr, %"class.std::__shared_count" }
%"class.node::UnionBytes" = type { ptr, ptr }
%"class.std::shared_ptr.268" = type { %"class.std::__shared_ptr.269" }
%"class.std::__shared_ptr.269" = type { ptr, %"class.std::__shared_count" }
%"class.std::function.271" = type { %"class.std::_Function_base", ptr }
%"class.std::unordered_map.273" = type { %"class.std::_Hashtable.274" }
%"class.std::_Hashtable.274" = type { ptr, i64, %"struct.std::__detail::_Hash_node_base", i64, %"struct.std::__detail::_Prime_rehash_policy", ptr }
%"class.v8::Local" = type { %"class.v8::LocalBase" }
%"class.v8::LocalBase" = type { %"class.v8::IndirectHandleBase" }

@stderr = external global ptr, align 8
@.str.67 = private unnamed_addr constant [16 x i8] c"(unknown event)\00", align 1
@.str.68 = private unnamed_addr constant [8 x i8] c"started\00", align 1
@.str.69 = private unnamed_addr constant [31 x i8] c"was woken up by another thread\00", align 1
@.str.70 = private unnamed_addr constant [10 x i8] c"timed out\00", align 1
@.str.71 = private unnamed_addr constant [36 x i8] c"was stopped by terminated execution\00", align 1
@.str.72 = private unnamed_addr constant [37 x i8] c"was stopped through the embedder API\00", align 1
@.str.73 = private unnamed_addr constant [43 x i8] c"did not wait because the values mismatched\00", align 1
@.str.74 = private unnamed_addr constant [60 x i8] c"(node:%d) [Thread %lu] Atomics.wait(%p + %zx, %ld, %.f) %s\0A\00", align 1

; Function Attrs: mustprogress nounwind uwtable
define linkonce_odr dso_local noundef i64 @_ZNK4node11Environment9thread_idEv(ptr noundef nonnull align 8 dereferenceable(2872) %this) #5 comdat align 2 {
entry:
  %this.addr = alloca ptr, align 8
  store ptr %this, ptr %this.addr, align 8
  %this1 = load ptr, ptr %this.addr, align 8
  %thread_id_ = getelementptr inbounds %"class.node::Environment", ptr %this1, i32 0, i32 64
  %0 = load i64, ptr %thread_id_, align 8
  ret i64 %0
}

; Function Attrs: mustprogress nounwind uwtable
define internal void @_ZN4nodeL19AtomicsWaitCallbackEN2v87Isolate16AtomicsWaitEventENS0_5LocalINS0_17SharedArrayBufferEEEmldPNS1_21AtomicsWaitWakeHandleEPv(i32 noundef %event, ptr %array_buffer.coerce, i64 noundef %offset_in_bytes, i64 noundef %value, double noundef %timeout_in_ms, ptr noundef %stop_handle, ptr noundef %data) #5 {
entry:
  %this.addr.i15 = alloca ptr, align 8
  %slot.addr.i = alloca ptr, align 8
  %this.addr.i12 = alloca ptr, align 8
  %this.addr.i = alloca ptr, align 8
  %array_buffer = alloca %"class.v8::Local", align 8
  %event.addr = alloca i32, align 4
  %offset_in_bytes.addr = alloca i64, align 8
  %value.addr = alloca i64, align 8
  %timeout_in_ms.addr = alloca double, align 8
  %stop_handle.addr = alloca ptr, align 8
  %data.addr = alloca ptr, align 8
  %env = alloca ptr, align 8
  %message = alloca ptr, align 8
  %coerce.dive = getelementptr inbounds %"class.v8::Local", ptr %array_buffer, i32 0, i32 0
  %coerce.dive1 = getelementptr inbounds %"class.v8::LocalBase", ptr %coerce.dive, i32 0, i32 0
  %coerce.dive2 = getelementptr inbounds %"class.v8::IndirectHandleBase", ptr %coerce.dive1, i32 0, i32 0
  store ptr %array_buffer.coerce, ptr %coerce.dive2, align 8
  store i32 %event, ptr %event.addr, align 4
  store i64 %offset_in_bytes, ptr %offset_in_bytes.addr, align 8
  store i64 %value, ptr %value.addr, align 8
  store double %timeout_in_ms, ptr %timeout_in_ms.addr, align 8
  store ptr %stop_handle, ptr %stop_handle.addr, align 8
  store ptr %data, ptr %data.addr, align 8
  %0 = load ptr, ptr %data.addr, align 8
  store ptr %0, ptr %env, align 8
  store ptr @.str.67, ptr %message, align 8
  %1 = load i32, ptr %event.addr, align 4
  switch i32 %1, label %sw.epilog [
    i32 0, label %sw.bb
    i32 1, label %sw.bb3
    i32 2, label %sw.bb4
    i32 3, label %sw.bb5
    i32 4, label %sw.bb6
    i32 5, label %sw.bb7
  ]

sw.bb:                                            ; preds = %entry
  store ptr @.str.68, ptr %message, align 8
  br label %sw.epilog

sw.bb3:                                           ; preds = %entry
  store ptr @.str.69, ptr %message, align 8
  br label %sw.epilog

sw.bb4:                                           ; preds = %entry
  store ptr @.str.70, ptr %message, align 8
  br label %sw.epilog

sw.bb5:                                           ; preds = %entry
  store ptr @.str.71, ptr %message, align 8
  br label %sw.epilog

sw.bb6:                                           ; preds = %entry
  store ptr @.str.72, ptr %message, align 8
  br label %sw.epilog

sw.bb7:                                           ; preds = %entry
  store ptr @.str.73, ptr %message, align 8
  br label %sw.epilog

sw.epilog:                                        ; preds = %sw.bb7, %sw.bb6, %sw.bb5, %sw.bb4, %sw.bb3, %sw.bb, %entry
  %2 = load ptr, ptr @stderr, align 8
  %call = call i32 @uv_os_getpid()
  %3 = load ptr, ptr %env, align 8
  %call8 = call noundef i64 @_ZNK4node11Environment9thread_idEv(ptr noundef nonnull align 8 dereferenceable(2872) %3)
  store ptr %array_buffer, ptr %this.addr.i, align 8
  %this1.i = load ptr, ptr %this.addr.i, align 8
  store ptr %this1.i, ptr %this.addr.i12, align 8
  %this1.i13 = load ptr, ptr %this.addr.i12, align 8
  store ptr %this1.i13, ptr %this.addr.i15, align 8
  %this1.i16 = load ptr, ptr %this.addr.i15, align 8
  %4 = load ptr, ptr %this1.i16, align 8
  store ptr %4, ptr %slot.addr.i, align 8
  %5 = load ptr, ptr %slot.addr.i, align 8
  %call10 = call noundef ptr @_ZNK2v817SharedArrayBuffer4DataEv(ptr noundef nonnull align 1 dereferenceable(1) %5)
  %6 = load i64, ptr %offset_in_bytes.addr, align 8
  %7 = load i64, ptr %value.addr, align 8
  %8 = load double, ptr %timeout_in_ms.addr, align 8
  %9 = load ptr, ptr %message, align 8
  %call11 = call i32 (ptr, ptr, ...) @fprintf(ptr noundef %2, ptr noundef @.str.74, i32 noundef %call, i64 noundef %call8, ptr noundef %call10, i64 noundef %6, i64 noundef %7, double noundef %8, ptr noundef %9)
  ret void
}