; Function Attrs: mustprogress nounwind uwtable
define internal void @_ZN4nodeL19AtomicsWaitCallbackEN2v87Isolate16AtomicsWaitEventENS0_5LocalINS0_17SharedArrayBufferEEEmldPNS1_21AtomicsWaitWakeHandleEPv(i32 noundef %event, ptr %array_buffer.coerce, i64 noundef %offset_in_bytes, i64 noundef %value, double noundef %timeout_in_ms, ptr nocapture readnone %stop_handle, ptr nocapture noundef readonly %data) #4 {
entry:
  %0 = icmp ult i32 %event, 6
  br i1 %0, label %switch.lookup, label %sw.epilog

switch.lookup:                                    ; preds = %entry
  %1 = zext nneg i32 %event to i64
  %switch.gep = getelementptr inbounds [6 x ptr], ptr @switch.table._ZN4nodeL19AtomicsWaitCallbackEN2v87Isolate16AtomicsWaitEventENS0_5LocalINS0_17SharedArrayBufferEEEmldPNS1_21AtomicsWaitWakeHandleEPv, i64 0, i64 %1
  %switch.load = load ptr, ptr %switch.gep, align 8
  br label %sw.epilog

sw.epilog:                                        ; preds = %switch.lookup, %entry
  %message.0 = phi ptr [ @.str.67, %entry ], [ %switch.load, %switch.lookup ]
  %2 = load ptr, ptr @stderr, align 8
  %call = tail call i32 @uv_os_getpid() #23
  %thread_id_.i = getelementptr inbounds i8, ptr %data, i64 2072
  %3 = load i64, ptr %thread_id_.i, align 8
  %call10 = tail call noundef ptr @_ZNK2v817SharedArrayBuffer4DataEv(ptr noundef nonnull align 1 dereferenceable(1) %array_buffer.coerce) #23
  %call11 = tail call i32 (ptr, ptr, ...) @fprintf(ptr noundef %2, ptr noundef nonnull @.str.74, i32 noundef %call, i64 noundef %3, ptr noundef %call10, i64 noundef %offset_in_bytes, i64 noundef %value, double noundef %timeout_in_ms, ptr noundef nonnull %message.0) #27
  ret void
}